target datalayout = "e-m:e-p270:32:32-p271:32:32-p272:64:64-i64:64-i128:128-f80:128-n8:16:32:64-S128"
target triple = "x86_64-unknown-linux-gnu"

%struct.PtyChardev = type { %struct.Chardev, ptr, i32, i32, ptr }
%struct.Chardev = type { %struct.Object, %struct.QemuMutex, ptr, ptr, ptr, i32, i32, i8, ptr, ptr, [1 x i64] }
%struct.Object = type { ptr, ptr, ptr, i32, ptr }
%struct.QemuMutex = type { %union.pthread_mutex_t, i8 }
%union.pthread_mutex_t = type { %struct.__pthread_mutex_s }
%struct.__pthread_mutex_s = type { i32, i32, i32, i32, i32, i16, i16, %struct.__pthread_internal_list }
%struct.__pthread_internal_list = type { ptr, ptr }
%struct._GPollFD = type { i32, i16, i16 }
%struct.QIOChannelFile = type { %struct.QIOChannel, i32 }
%struct.QIOChannel = type { %struct.Object, i32, ptr, ptr, ptr, ptr, ptr, i8 }

@.str = private unnamed_addr constant [12 x i8] c"chardev-pty\00", align 1
@.str.3 = private unnamed_addr constant [27 x i8] c"../qemu/chardev/char-pty.c\00", align 1
@__func__.PTY_CHARDEV = private unnamed_addr constant [12 x i8] c"PTY_CHARDEV\00", align 1
@__func__.char_pty_chr_write = private unnamed_addr constant [19 x i8] c"char_pty_chr_write\00", align 1
@.str.12 = private unnamed_addr constant [8 x i8] c"rc >= 0\00", align 1
@.str.13 = private unnamed_addr constant [17 x i8] c"qio-channel-file\00", align 1
@.str.14 = private unnamed_addr constant [104 x i8] c"/home/dtcxzyw/WorkSpace/Projects/compilers/llvm-opt-benchmark/bench/qemu/qemu/include/io/channel-file.h\00", align 1
@__func__.QIO_CHANNEL_FILE = private unnamed_addr constant [17 x i8] c"QIO_CHANNEL_FILE\00", align 1

; Function Attrs: nounwind sspstrong uwtable
define internal ptr @QIO_CHANNEL_FILE(ptr noundef %obj) #0 {
entry:
  %obj.addr = alloca ptr, align 8
  store ptr %obj, ptr %obj.addr, align 8
  %0 = load ptr, ptr %obj.addr, align 8
  %call = call ptr @object_dynamic_cast_assert(ptr noundef %0, ptr noundef @.str.13, ptr noundef @.str.14, i32 noundef 28, ptr noundef @__func__.QIO_CHANNEL_FILE)
  ret ptr %call
}

; Function Attrs: nounwind sspstrong uwtable
define internal ptr @PTY_CHARDEV(ptr noundef %obj) #0 {
entry:
  %obj.addr = alloca ptr, align 8
  store ptr %obj, ptr %obj.addr, align 8
  %0 = load ptr, ptr %obj.addr, align 8
  %call = call ptr @object_dynamic_cast_assert(ptr noundef %0, ptr noundef @.str, ptr noundef @.str.3, i32 noundef 48, ptr noundef @__func__.PTY_CHARDEV)
  ret ptr %call
}

; Function Attrs: nounwind sspstrong uwtable
define internal i32 @char_pty_chr_write(ptr noundef %chr, ptr noundef %buf, i32 noundef %len) #0 {
entry:
  %retval = alloca i32, align 4
  %chr.addr = alloca ptr, align 8
  %buf.addr = alloca ptr, align 8
  %len.addr = alloca i32, align 4
  %s = alloca ptr, align 8
  %pfd = alloca %struct._GPollFD, align 4
  %rc = alloca i32, align 4
  %__result = alloca i32, align 4
  %tmp = alloca i32, align 4
  store ptr %chr, ptr %chr.addr, align 8
  store ptr %buf, ptr %buf.addr, align 8
  store i32 %len, ptr %len.addr, align 4
  %0 = load ptr, ptr %chr.addr, align 8
  %call = call ptr @PTY_CHARDEV(ptr noundef %0)
  store ptr %call, ptr %s, align 8
  %1 = load ptr, ptr %s, align 8
  %connected = getelementptr inbounds %struct.PtyChardev, ptr %1, i32 0, i32 3
  %2 = load i32, ptr %connected, align 4
  %tobool = icmp ne i32 %2, 0
  br i1 %tobool, label %if.then, label %if.end

if.then:                                          ; preds = %entry
  %3 = load ptr, ptr %s, align 8
  %ioc = getelementptr inbounds %struct.PtyChardev, ptr %3, i32 0, i32 1
  %4 = load ptr, ptr %ioc, align 8
  %5 = load ptr, ptr %buf.addr, align 8
  %6 = load i32, ptr %len.addr, align 4
  %conv = sext i32 %6 to i64
  %call1 = call i32 @io_channel_send(ptr noundef %4, ptr noundef %5, i64 noundef %conv)
  store i32 %call1, ptr %retval, align 4
  br label %return

if.end:                                           ; preds = %entry
  %7 = load ptr, ptr %s, align 8
  %ioc2 = getelementptr inbounds %struct.PtyChardev, ptr %7, i32 0, i32 1
  %8 = load ptr, ptr %ioc2, align 8
  %call3 = call ptr @QIO_CHANNEL_FILE(ptr noundef %8)
  %fd = getelementptr inbounds %struct.QIOChannelFile, ptr %call3, i32 0, i32 1
  %9 = load i32, ptr %fd, align 8
  %fd4 = getelementptr inbounds %struct._GPollFD, ptr %pfd, i32 0, i32 0
  store i32 %9, ptr %fd4, align 4
  %events = getelementptr inbounds %struct._GPollFD, ptr %pfd, i32 0, i32 1
  store i16 4, ptr %events, align 4
  %revents = getelementptr inbounds %struct._GPollFD, ptr %pfd, i32 0, i32 2
  store i16 0, ptr %revents, align 2
  br label %do.body

do.body:                                          ; preds = %land.end, %if.end
  %call5 = call i32 @g_poll(ptr noundef %pfd, i32 noundef 1, i32 noundef 0)
  store i32 %call5, ptr %__result, align 4
  br label %do.cond

do.cond:                                          ; preds = %do.body
  %10 = load i32, ptr %__result, align 4
  %cmp = icmp eq i32 %10, -1
  br i1 %cmp, label %land.rhs, label %land.end

land.rhs:                                         ; preds = %do.cond
  %call7 = call ptr @__errno_location() #6
  %11 = load i32, ptr %call7, align 4
  %cmp8 = icmp eq i32 %11, 4
  br label %land.end

land.end:                                         ; preds = %land.rhs, %do.cond
  %12 = phi i1 [ false, %do.cond ], [ %cmp8, %land.rhs ]
  br i1 %12, label %do.body, label %do.end, !llvm.loop !5

do.end:                                           ; preds = %land.end
  %13 = load i32, ptr %__result, align 4
  store i32 %13, ptr %tmp, align 4
  %14 = load i32, ptr %tmp, align 4
  store i32 %14, ptr %rc, align 4
  br label %do.body10

do.body10:                                        ; preds = %do.end
  %15 = load i32, ptr %rc, align 4
  %cmp11 = icmp sge i32 %15, 0
  br i1 %cmp11, label %if.then13, label %if.else

if.then13:                                        ; preds = %do.body10
  br label %if.end14

if.else:                                          ; preds = %do.body10
  call void @g_assertion_message_expr(ptr noundef null, ptr noundef @.str.3, i32 noundef 124, ptr noundef @__func__.char_pty_chr_write, ptr noundef @.str.12) #7
  unreachable

if.end14:                                         ; preds = %if.then13
  br label %do.end16

do.end16:                                         ; preds = %if.end14
  %revents17 = getelementptr inbounds %struct._GPollFD, ptr %pfd, i32 0, i32 2
  %16 = load i16, ptr %revents17, align 2
  %conv18 = zext i16 %16 to i32
  %and = and i32 %conv18, 16
  %tobool19 = icmp ne i32 %and, 0
  br i1 %tobool19, label %if.end28, label %land.lhs.true

land.lhs.true:                                    ; preds = %do.end16
  %revents20 = getelementptr inbounds %struct._GPollFD, ptr %pfd, i32 0, i32 2
  %17 = load i16, ptr %revents20, align 2
  %conv21 = zext i16 %17 to i32
  %and22 = and i32 %conv21, 4
  %tobool23 = icmp ne i32 %and22, 0
  br i1 %tobool23, label %if.then24, label %if.end28

if.then24:                                        ; preds = %land.lhs.true
  %18 = load ptr, ptr %s, align 8
  %ioc25 = getelementptr inbounds %struct.PtyChardev, ptr %18, i32 0, i32 1
  %19 = load ptr, ptr %ioc25, align 8
  %20 = load ptr, ptr %buf.addr, align 8
  %21 = load i32, ptr %len.addr, align 4
  %conv26 = sext i32 %21 to i64
  %call27 = call i32 @io_channel_send(ptr noundef %19, ptr noundef %20, i64 noundef %conv26)
  br label %if.end28

if.end28:                                         ; preds = %if.then24, %land.lhs.true, %do.end16
  %22 = load i32, ptr %len.addr, align 4
  store i32 %22, ptr %retval, align 4
  br label %return

return:                                           ; preds = %if.end28, %if.then
  %23 = load i32, ptr %retval, align 4
  ret i32 %23
}