; Function Attrs: nounwind sspstrong uwtable
define internal i32 @char_pty_chr_write(ptr noundef %chr, ptr noundef %buf, i32 noundef %len) #0 {
entry:
  %pfd = alloca %struct._GPollFD, align 4
  %call.i = tail call ptr @object_dynamic_cast_assert(ptr noundef %chr, ptr noundef nonnull @.str, ptr noundef nonnull @.str.3, i32 noundef 48, ptr noundef nonnull @__func__.PTY_CHARDEV) #9
  %connected = getelementptr inbounds nuw i8, ptr %call.i, i64 164
  %0 = load i32, ptr %connected, align 4
  %tobool.not = icmp eq i32 %0, 0
  %ioc2 = getelementptr inbounds nuw i8, ptr %call.i, i64 152
  %1 = load ptr, ptr %ioc2, align 8
  br i1 %tobool.not, label %if.end, label %if.then

if.then:                                          ; preds = %entry
  %conv = sext i32 %len to i64
  %call1 = tail call i32 @io_channel_send(ptr noundef %1, ptr noundef %buf, i64 noundef %conv) #9
  br label %return

if.end:                                           ; preds = %entry
  %call.i8 = tail call ptr @object_dynamic_cast_assert(ptr noundef %1, ptr noundef nonnull @.str.13, ptr noundef nonnull @.str.14, i32 noundef 28, ptr noundef nonnull @__func__.QIO_CHANNEL_FILE) #9
  %fd = getelementptr inbounds nuw i8, ptr %call.i8, i64 96
  %2 = load i32, ptr %fd, align 8
  store i32 %2, ptr %pfd, align 4
  %events = getelementptr inbounds nuw i8, ptr %pfd, i64 4
  store i16 4, ptr %events, align 4
  %revents = getelementptr inbounds nuw i8, ptr %pfd, i64 6
  store i16 0, ptr %revents, align 2
  br label %do.body

do.body:                                          ; preds = %land.rhs, %if.end
  %call5 = call i32 @g_poll(ptr noundef nonnull %pfd, i32 noundef 1, i32 noundef 0) #9
  %cmp = icmp eq i32 %call5, -1
  br i1 %cmp, label %land.rhs, label %do.end

land.rhs:                                         ; preds = %do.body
  %call7 = tail call ptr @__errno_location() #10
  %3 = load i32, ptr %call7, align 4
  %cmp8 = icmp eq i32 %3, 4
  br i1 %cmp8, label %do.body, label %if.else, !llvm.loop !5

do.end:                                           ; preds = %do.body
  %cmp11 = icmp sgt i32 %call5, -1
  br i1 %cmp11, label %do.end16, label %if.else

if.else:                                          ; preds = %land.rhs, %do.end
  call void @g_assertion_message_expr(ptr noundef null, ptr noundef nonnull @.str.3, i32 noundef 124, ptr noundef nonnull @__func__.char_pty_chr_write, ptr noundef nonnull @.str.12) #11
  unreachable

do.end16:                                         ; preds = %do.end
  %4 = load i16, ptr %revents, align 2
  %5 = and i16 %4, 20
  %or.cond.not = icmp eq i16 %5, 4
  br i1 %or.cond.not, label %if.then24, label %return

if.then24:                                        ; preds = %do.end16
  %6 = load ptr, ptr %ioc2, align 8
  %conv26 = sext i32 %len to i64
  %call27 = call i32 @io_channel_send(ptr noundef %6, ptr noundef %buf, i64 noundef %conv26) #9
  br label %return

return:                                           ; preds = %do.end16, %if.then24, %if.then
  %retval.0 = phi i32 [ %call1, %if.then ], [ %len, %if.then24 ], [ %len, %do.end16 ]
  ret i32 %retval.0
}